; ModuleID = '16/229.c'
source_filename = "16/229.c"
target datalayout = "e-m:e-p270:32:32-p271:32:32-p272:64:64-i64:64-f80:128-n8:16:32:64-S128"
target triple = "x86_64-pc-linux-gnu"

@.str = private unnamed_addr constant [3 x i8] c"%d\00", align 1
@.str.1 = private unnamed_addr constant [6 x i8] c"00001\00", align 1
@.str.2 = private unnamed_addr constant [9 x i8] c"%d%d%d%d\00", align 1
@.str.3 = private unnamed_addr constant [7 x i8] c"%d%d%d\00", align 1
@.str.4 = private unnamed_addr constant [5 x i8] c"%d%d\00", align 1

; Function Attrs: noinline nounwind uwtable
define dso_local i32 @main() #0 {
  %1 = alloca i32, align 4
  %2 = alloca i32, align 4
  %3 = alloca i32, align 4
  %4 = alloca i32, align 4
  %5 = alloca i32, align 4
  %6 = alloca i32, align 4
  store i32 0, i32* %1, align 4
  %7 = call i32 (i8*, ...) @__isoc99_scanf(i8* getelementptr inbounds ([3 x i8], [3 x i8]* @.str, i64 0, i64 0), i32* %2)
  %8 = load i32, i32* %2, align 4
  %9 = icmp eq i32 %8, 10000
  br i1 %9, label %10, label %12

10:                                               ; preds = %0
  %11 = call i32 (i8*, ...) @printf(i8* getelementptr inbounds ([6 x i8], [6 x i8]* @.str.1, i64 0, i64 0))
  br label %96

12:                                               ; preds = %0
  %13 = load i32, i32* %2, align 4
  %14 = icmp slt i32 %13, 10000
  br i1 %14, label %15, label %49

15:                                               ; preds = %12
  %16 = load i32, i32* %2, align 4
  %17 = icmp sge i32 %16, 1000
  br i1 %17, label %18, label %49

18:                                               ; preds = %15
  %19 = load i32, i32* %2, align 4
  %20 = srem i32 %19, 10
  store i32 %20, i32* %3, align 4
  %21 = load i32, i32* %2, align 4
  %22 = load i32, i32* %3, align 4
  %23 = sub nsw i32 %21, %22
  %24 = sdiv i32 %23, 10
  %25 = srem i32 %24, 10
  store i32 %25, i32* %4, align 4
  %26 = load i32, i32* %2, align 4
  %27 = load i32, i32* %3, align 4
  %28 = sub nsw i32 %26, %27
  %29 = load i32, i32* %4, align 4
  %30 = mul nsw i32 10, %29
  %31 = sub nsw i32 %28, %30
  %32 = sdiv i32 %31, 100
  %33 = srem i32 %32, 10
  store i32 %33, i32* %5, align 4
  %34 = load i32, i32* %2, align 4
  %35 = load i32, i32* %3, align 4
  %36 = sub nsw i32 %34, %35
  %37 = load i32, i32* %4, align 4
  %38 = mul nsw i32 10, %37
  %39 = sub nsw i32 %36, %38
  %40 = load i32, i32* %5, align 4
  %41 = mul nsw i32 100, %40
  %42 = sub nsw i32 %39, %41
  %43 = sdiv i32 %42, 1000
  store i32 %43, i32* %6, align 4
  %44 = load i32, i32* %3, align 4
  %45 = load i32, i32* %4, align 4
  %46 = load i32, i32* %5, align 4
  %47 = load i32, i32* %6, align 4
  %48 = call i32 (i8*, ...) @printf(i8* getelementptr inbounds ([9 x i8], [9 x i8]* @.str.2, i64 0, i64 0), i32 %44, i32 %45, i32 %46, i32 %47)
  br label %95

49:                                               ; preds = %15, %12
  %50 = load i32, i32* %2, align 4
  %51 = icmp slt i32 %50, 1000
  br i1 %51, label %52, label %74

52:                                               ; preds = %49
  %53 = load i32, i32* %2, align 4
  %54 = icmp sge i32 %53, 100
  br i1 %54, label %55, label %74

55:                                               ; preds = %52
  %56 = load i32, i32* %2, align 4
  %57 = srem i32 %56, 10
  store i32 %57, i32* %3, align 4
  %58 = load i32, i32* %2, align 4
  %59 = load i32, i32* %3, align 4
  %60 = sub nsw i32 %58, %59
  %61 = sdiv i32 %60, 10
  %62 = srem i32 %61, 10
  store i32 %62, i32* %4, align 4
  %63 = load i32, i32* %2, align 4
  %64 = load i32, i32* %3, align 4
  %65 = sub nsw i32 %63, %64
  %66 = load i32, i32* %4, align 4
  %67 = mul nsw i32 10, %66
  %68 = sub nsw i32 %65, %67
  %69 = sdiv i32 %68, 100
  store i32 %69, i32* %5, align 4
  %70 = load i32, i32* %3, align 4
  %71 = load i32, i32* %4, align 4
  %72 = load i32, i32* %5, align 4
  %73 = call i32 (i8*, ...) @printf(i8* getelementptr inbounds ([7 x i8], [7 x i8]* @.str.3, i64 0, i64 0), i32 %70, i32 %71, i32 %72)
  br label %94

74:                                               ; preds = %52, %49
  %75 = load i32, i32* %2, align 4
  %76 = icmp slt i32 %75, 100
  br i1 %76, label %77, label %90

77:                                               ; preds = %74
  %78 = load i32, i32* %2, align 4
  %79 = icmp sge i32 %78, 10
  br i1 %79, label %80, label %90

80:                                               ; preds = %77
  %81 = load i32, i32* %2, align 4
  %82 = srem i32 %81, 10
  store i32 %82, i32* %3, align 4
  %83 = load i32, i32* %2, align 4
  %84 = load i32, i32* %3, align 4
  %85 = sub nsw i32 %83, %84
  %86 = sdiv i32 %85, 10
  store i32 %86, i32* %4, align 4
  %87 = load i32, i32* %3, align 4
  %88 = load i32, i32* %4, align 4
  %89 = call i32 (i8*, ...) @printf(i8* getelementptr inbounds ([5 x i8], [5 x i8]* @.str.4, i64 0, i64 0), i32 %87, i32 %88)
  br label %93

90:                                               ; preds = %77, %74
  %91 = load i32, i32* %2, align 4
  %92 = call i32 (i8*, ...) @printf(i8* getelementptr inbounds ([3 x i8], [3 x i8]* @.str, i64 0, i64 0), i32 %91)
  br label %93

93:                                               ; preds = %90, %80
  br label %94

94:                                               ; preds = %93, %55
  br label %95

95:                                               ; preds = %94, %18
  br label %96

96:                                               ; preds = %95, %10
  ret i32 0
}

declare dso_local i32 @__isoc99_scanf(i8*, ...) #1

declare dso_local i32 @printf(i8*, ...) #1


!llvm.module.flags = !{!0}
!llvm.ident = !{!1}

!0 = !{i32 1, !"wchar_size", i32 4}
!1 = !{!"clang version 10.0.0-4ubuntu1 "}
